(dp0
I1
ccopy_reg
_reconstructor
p1
(c__main__
employee
p2
c__builtin__
object
p3
Ntp4
Rp5
(dp6
S'_employee__dobyear'
p7
I1999
sS'_employee__surname'
p8
S'Vachher'
p9
sS'_employee__address'
p10
S'B17'
p11
sS'_employee__dojday'
p12
I31
sS'_employee__final1'
p13
S''
p14
sS'_employee__bonus'
p15
I0
sS'_employee__dobday'
p16
I28
sS'_employee__first_name'
p17
S'Prateek'
p18
sS'_employee__dojmonth'
p19
I5
sS'_employee__dojyear'
p20
I2016
sS'_employee__final2'
p21
g14
sS'_employee__dojdate'
p22
g14
sS'_employee__city'
p23
S'Delhi'
p24
sS'_employee__dobmonth'
p25
I4
sS'_employee__targets'
p26
I0
sS'id'
p27
I0
sS'_employee__salary'
p28
I60000
sS'_employee__product_division'
p29
S'macbook'
p30
sbs.