(dp0
S'TV'
p1
(dp2
S'Code'
p3
S'3'
p4
sS'Description'
p5
S"10000' LED TV"
p6
sS'Company'
p7
S'Sony'
p8
sS'SP'
p9
I2324309
sS'VAT'
p10
I5
sS'Quantity'
p11
I9999907
ssS'Nexus 5X'
p12
(dp13
S'Code'
p14
S'1'
p15
sS'Description'
p16
S'Nexus 5X'
p17
sS'Company'
p18
S'Google'
p19
sS'SP'
p20
I100000
sS'VAT'
p21
I10
sS'Quantity'
p22
I9999833
ssS'CK Spectacles'
p23
(dp24
S'Code'
p25
S'5'
p26
sS'Description'
p27
S'Black specs full plastic big size lightweight cheap with box and lens cleaner cloth and solution'
p28
sS'Company'
p29
S'CK'
p30
sS'SP'
p31
I10000
sS'VAT'
p32
I5
sS'Quantity'
p33
I9999999956
ssS'Headphones'
p34
(dp35
S'Code'
p36
S'4'
p37
sS'Description'
p38
S'Headphone bose noise cancelling on the ear oe1000000000 with wire and case and manual and etc.......................'
p39
sS'Company'
p40
S'Bose'
p41
sS'SP'
p42
I1000
sS'VAT'
p43
I5
sS'Quantity'
p44
I999999697
ss.