(dp0
S'Customers'
p1
(dp2
S'ABC'
p3
(dp4
S'City'
p5
S'Dek'
p6
sS'Salesrecord'
p7
(dp8
S'Bills'
p9
(lp10
I10
asS'Total sales'
p11
I51000
ssS'address1'
p12
S'123'
p13
sS'address2'
p14
S'123'
p15
sS'Phone Number'
p16
S'123'
p17
sS'rewardpoints'
p18
I1000
sS'email'
p19
S'ok@gmail.com'
p20
ssS'Vishrut J'
p21
(dp22
S'City'
p23
S'ND'
p24
sS'Salesrecord'
p25
(dp26
S'Bills'
p27
(lp28
ssS'address1'
p29
S'W-97'
p30
sS'address2'
p31
S'GK-2'
p32
sS'Phone Number'
p33
S'9999335240'
p34
sS'email'
p35
S'vishrut1998@gmail.com'
p36
ssS'Vi'
p37
(dp38
S'City'
p39
S'ND'
p40
sS'Salesrecord'
p41
(dp42
S'Bills'
p43
(lp44
I14
asS'Total sales'
p45
I51000
ssS'address1'
p46
S'qw'
p47
sS'address2'
p48
S'qw'
p49
sS'Phone Number'
p50
S'123'
p51
sS'rewardpoints'
p52
I0
sS'email'
p53
S'vishrut1998@gmail.com'
p54
ssS'Vishrut Jaipuria'
p55
(dp56
S'City'
p57
S'New Delhi'
p58
sS'Salesrecord'
p59
(dp60
S'Bills'
p61
(lp62
I2
asS'Total sales'
p63
I510100
ssS'address1'
p64
S'W-97'
p65
sS'address2'
p66
S'GK-2'
p67
sS'Phone Number'
p68
S'9999335240'
p69
sS'email'
p70
S'vishrut1998@gmail.com'
p71
ssS'Vishrut'
p72
(dp73
S'City'
p74
S'ND-110048'
p75
sS'Salesrecord'
p76
(dp77
S'Bills'
p78
(lp79
I3
aI5
aI6
aI7
aI8
aI9
aI11
aI12
aI13
asS'Total sales'
p80
I1720220
ssS'address1'
p81
S'W-97'
p82
sS'address2'
p83
S'GK-2'
p84
sS'Phone Number'
p85
S'9999335240'
p86
sS'rewardpoints'
p87
I33720
sS'email'
p88
S'vishrutjaipuria@gmail.com'
p89
ssS'Prateek Vachher'
p90
(dp91
S'City'
p92
S'New Delhi'
p93
sS'Salesrecord'
p94
(dp95
S'Bills'
p96
(lp97
I4
asS'Total sales'
p98
I91800
ssS'address1'
p99
S'B-17, 3rd Floor'
p100
sS'address2'
p101
S'Greater Kailash Enclave 2'
p102
sS'Phone Number'
p103
S'9654360244'
p104
sS'rewardpoints'
p105
I1800
sS'email'
p106
S'vachherprateek@gmail.com'
p107
ssS'Manu Jaipuria'
p108
(dp109
S'City'
p110
S'New Delhi'
p111
sS'Salesrecord'
p112
(dp113
S'Bills'
p114
(lp115
I1
asS'Total sales'
p116
I510100
ssS'address1'
p117
S'W-97'
p118
sS'address2'
p119
S'GK-2'
p120
sS'Phone Number'
p121
S'9810035735'
p122
sS'email'
p123
S'vishrutjai@gmail.com'
p124
sssS'sales'
p125
(dp126
I1
(dp127
S'Product Name'
p128
(lp129
S'Macbook Air'
p130
asS'Product Code'
p131
(lp132
S'1'
p133
asS'Price'
p134
(lp135
I50000
asS'Salesperson id'
p136
I1
sS'Total amount of sales'
p137
I500000
sS'Customer Information'
p138
(dp139
S'City'
p140
g111
sS'Address'
p141
S'W-97, GK-2'
p142
sS'Phone Number'
p143
g122
sS'Name'
p144
S'Manu Jaipuria'
p145
sS'Email'
p146
g124
ssS'Date'
p147
S'01/09/2016'
p148
sS'Quantity'
p149
(lp150
I10
asS'Description'
p151
(lp152
S'13.3"'
p153
assI2
(dp154
S'Product Name'
p155
(lp156
S'Macbook Air'
p157
asS'Product Code'
p158
(lp159
S'1'
p160
asS'Price'
p161
(lp162
I50000
asS'Salesperson id'
p163
I1
sS'Total amount of sales'
p164
I500000
sS'Customer Information'
p165
(dp166
g57
g58
sS'Name'
p167
g55
sg68
g69
sS'Email'
p168
g71
sS'Address'
p169
S'W-97, GK-2'
p170
ssS'Date'
p171
S'01/09/2016'
p172
sS'Description'
p173
(lp174
S'13.3"'
p175
asS'Quantity'
p176
(lp177
I10
assI3
(dp178
S'Product Name'
p179
(lp180
S'Macbook Air'
p181
asS'Product Code'
p182
(lp183
S'1'
p184
asS'Price'
p185
(lp186
I50000
asS'Salesperson id'
p187
I0
sS'Total amount of sales'
p188
I500000
sS'Customer Information'
p189
(dp190
g74
g75
sS'Address'
p191
S'W-97, GK-2'
p192
sg85
g86
sS'Name'
p193
S'Vishrut'
p194
sS'Email'
p195
g89
ssS'Date'
p196
S'22/01/2017'
p197
sS'Quantity'
p198
(lp199
I10
asS'Description'
p200
(lp201
S'13.3"'
p202
assI4
(dp203
S'Product Name'
p204
(lp205
S'iPhone 7'
p206
asS'Product Code'
p207
(lp208
S'123'
p209
asS'Price'
p210
(lp211
I45000
asS'Salesperson id'
p212
I0
sS'Total amount of sales'
p213
I90000
sS'Customer Information'
p214
(dp215
g92
g93
sS'Name'
p216
g90
sg103
g104
sS'Email'
p217
g107
sS'Address'
p218
S'B-17, 3rd Floor, Greater Kailash Enclave 2'
p219
ssS'Date'
p220
S'22/01/2017'
p221
sS'Description'
p222
(lp223
S'32GB'
p224
asS'Quantity'
p225
(lp226
I2
assI5
(dp227
S'Product Name'
p228
(lp229
S'Earphones'
p230
aS'iPhone 7'
p231
asS'Product Code'
p232
(lp233
S'2'
p234
aS'123'
p235
asS'Price'
p236
(lp237
I3000
aI45000
asS'Salesperson id'
p238
I0
sS'Total amount of sales'
p239
I75000
sS'Customer Information'
p240
(dp241
S'City'
p242
g75
sS'Address'
p243
S'W-97, GK-2'
p244
sS'Phone Number'
p245
g86
sS'Email'
p246
g89
sS'Name'
p247
S'Vishrut'
p248
ssS'Date'
p249
S'23/01/2017'
p250
sS'Quantity'
p251
(lp252
I10
aI1
asS'Description'
p253
(lp254
S'Long, black earphones with mic great sound, bass, tangle free with extra silicon covers, 3.5mm headphone jack, and case'
p255
aS'32GB'
p256
assI6
(dp257
S'Product Name'
p258
(lp259
S'Earphones'
p260
aS'iPhone 7'
p261
asS'Product Code'
p262
(lp263
S'2'
p264
aS'123'
p265
asS'Price'
p266
(lp267
I3000
aI45000
asS'Salesperson id'
p268
I0
sS'Total amount of sales'
p269
I75000
sS'Customer Information'
p270
(dp271
S'Email'
p272
g89
sS'City'
p273
g75
sS'Phone Number'
p274
g86
sS'Name'
p275
S'Vishrut'
p276
sS'Address'
p277
S'W-97, GK-2'
p278
ssS'Date'
p279
S'23/01/2017'
p280
sS'Description'
p281
(lp282
S'Long, black earphones with mic great sound, bass, tangle free with extra silicon covers, 3.5mm headphone jack, and case'
p283
aS'32GB'
p284
asS'Quantity'
p285
(lp286
I10
aI1
assI7
(dp287
S'Product Name'
p288
(lp289
S'Earphones'
p290
aS'iPhone 7'
p291
asS'Product Code'
p292
(lp293
S'2'
p294
aS'123'
p295
asS'Price'
p296
(lp297
I3000
aI45000
asS'Salesperson id'
p298
I0
sS'Total amount of sales'
p299
I435000
sS'Customer Information'
p300
(dp301
S'City'
p302
g75
sS'Address'
p303
S'W-97, GK-2'
p304
sS'Phone Number'
p305
g86
sS'Name'
p306
S'Vishrut'
p307
sS'Email'
p308
g89
ssS'Date'
p309
S'23/01/2017'
p310
sS'Quantity'
p311
(lp312
I100
aI3
asS'Description'
p313
(lp314
S'Long, black earphones with mic great sound, bass, tangle free with extra silicon covers, 3.5mm headphone jack, and case'
p315
aS'32GB'
p316
assI8
(dp317
S'Product Name'
p318
(lp319
S'iPhone 7'
p320
asS'Product Code'
p321
(lp322
S'123'
p323
asS'Price'
p324
(lp325
I45000
asS'Salesperson id'
p326
I1
sS'Total amount of sales'
p327
I45000
sS'Customer Information'
p328
(dp329
S'City'
p330
g75
sS'Name'
p331
S'Vishrut'
p332
sS'Phone Number'
p333
g86
sS'Email'
p334
g89
sS'Address'
p335
S'W-97, GK-2'
p336
ssS'Date'
p337
S'27/01/2017'
p338
sS'Description'
p339
(lp340
S'32GB'
p341
asS'Quantity'
p342
(lp343
I1
assI9
(dp344
S'Product Name'
p345
(lp346
S'Macbook Air'
p347
asS'Product Code'
p348
(lp349
S'1'
p350
asS'Price'
p351
(lp352
I50000
asS'Salesperson id'
p353
I1
sS'Total amount of sales'
p354
I500000
sS'Customer Information'
p355
(dp356
S'City'
p357
g75
sS'Address'
p358
S'W-97, GK-2'
p359
sS'Phone Number'
p360
g86
sS'Email'
p361
g89
sS'Name'
p362
S'Vishrut'
p363
ssS'Date'
p364
S'27/01/2017'
p365
sS'Quantity'
p366
(lp367
I10
asS'Description'
p368
(lp369
S'13.3"'
p370
assI10
(dp371
S'Product Name'
p372
(lp373
S'Macbook Air'
p374
asS'Product Code'
p375
(lp376
S'1'
p377
asS'Price'
p378
(lp379
I50000
asS'Salesperson id'
p380
I1
sS'Total amount of sales'
p381
I50000
sS'Customer Information'
p382
(dp383
S'Email'
p384
g20
sg5
g6
sg16
g17
sS'Name'
p385
g3
sS'Address'
p386
S'123, 123'
p387
ssS'Date'
p388
S'05/02/2017'
p389
sS'Description'
p390
(lp391
S'13.3"'
p392
asS'Quantity'
p393
(lp394
I1
assI11
(dp395
S'Product Name'
p396
(lp397
S'Earphones'
p398
asS'Product Code'
p399
(lp400
S'2'
p401
asS'Price'
p402
(lp403
I3000
asS'Salesperson id'
p404
I0
sS'Total amount of sales'
p405
I3000
sS'Customer Information'
p406
(dp407
S'City'
p408
g75
sS'Address'
p409
S'W-97, GK-2'
p410
sS'Phone Number'
p411
g86
sS'Name'
p412
S'Vishrut'
p413
sS'Email'
p414
g89
ssS'Date'
p415
S'05/02/2017'
p416
sS'Quantity'
p417
(lp418
I1
asS'Description'
p419
(lp420
S'Long, black earphones with mic great sound, bass, tangle free with extra silicon covers, 3.5mm headphone jack, and case'
p421
assI12
(dp422
S'Product Name'
p423
(lp424
S'Earphones'
p425
asS'Product Code'
p426
(lp427
S'2'
p428
asS'Price'
p429
(lp430
I3000
asS'Salesperson id'
p431
I0
sS'Total amount of sales'
p432
I3000
sS'Customer Information'
p433
(dp434
S'City'
p435
g75
sS'Name'
p436
S'Vishrut'
p437
sS'Phone Number'
p438
g86
sS'Email'
p439
g89
sS'Address'
p440
S'W-97, GK-2'
p441
ssS'Date'
p442
S'05/02/2017'
p443
sS'Description'
p444
(lp445
S'Long, black earphones with mic great sound, bass, tangle free with extra silicon covers, 3.5mm headphone jack, and case'
p446
asS'Quantity'
p447
(lp448
I1
assI13
(dp449
S'Product Name'
p450
(lp451
S'Macbook Air'
p452
asS'Product Code'
p453
(lp454
S'1'
p455
asS'Price'
p456
(lp457
I50000
asS'Salesperson id'
p458
I1
sS'Total amount of sales'
p459
I50000
sS'Customer Information'
p460
(dp461
S'City'
p462
g75
sS'Address'
p463
S'W-97, GK-2'
p464
sS'Phone Number'
p465
g86
sS'Email'
p466
g89
sS'Name'
p467
S'Vishrut'
p468
ssS'Date'
p469
S'05/02/2017'
p470
sS'Quantity'
p471
(lp472
I1
asS'Description'
p473
(lp474
S'13.3"'
p475
assI14
(dp476
S'Customer Information'
p477
(dp478
S'Email'
p479
g54
sg39
g40
sg50
g51
sS'Name'
p480
g37
sS'Address'
p481
S'qw, qw'
p482
ssS'Product Code'
p483
(lp484
S'1'
p485
asS'Price'
p486
(lp487
I50000
asS'Salesperson id'
p488
I1
sS'Total amount of sales'
p489
I50000
sS'Product Name'
p490
(lp491
S'Macbook Air'
p492
asS'Date'
p493
S'05/02/2017'
p494
sS'Description'
p495
(lp496
S'13.3"'
p497
asS'Quantity'
p498
(lp499
I1
asss.