(dp0
S'Customers'
p1
(dp2
S'Manu Jaipuria'
p3
(dp4
S'City'
p5
S'New Delhi'
p6
sS'Salesrecord'
p7
(dp8
S'Bills'
p9
(lp10
I1
asS'Total sales'
p11
I510100
ssS'address1'
p12
S'W-97'
p13
sS'address2'
p14
S'GK-2'
p15
sS'Phone Number'
p16
S'9810035735'
p17
sS'email'
p18
S'vishrutjai@gmail.com'
p19
ssS'Vishrut Jaipuria'
p20
(dp21
S'City'
p22
S'New Delhi'
p23
sS'Salesrecord'
p24
(dp25
S'Bills'
p26
(lp27
I2
asS'Total sales'
p28
I510100
ssS'address1'
p29
S'W-97'
p30
sS'address2'
p31
S'GK-2'
p32
sS'Phone Number'
p33
S'9999335240'
p34
sS'email'
p35
S'vishrut1998@gmail.com'
p36
sssS'sales'
p37
(dp38
I1
(dp39
S'Product Name'
p40
(lp41
S'Macbook Air'
p42
asS'Product Code'
p43
(lp44
S'1'
p45
asS'Price'
p46
(lp47
I50000
asS'Salesperson id'
p48
I1
sS'Total amount of sales'
p49
I500000
sS'Customer Information'
p50
(dp51
S'City'
p52
g6
sS'Address'
p53
S'W-97, GK-2'
p54
sS'Phone Number'
p55
g17
sS'Email'
p56
g19
sS'Name'
p57
S'Manu Jaipuria'
p58
ssS'Date'
p59
S'01/09/2016'
p60
sS'Quantity'
p61
(lp62
I10
asS'Description'
p63
(lp64
S'13.3"'
p65
assI2
(dp66
S'Customer Information'
p67
(dp68
S'Email'
p69
g36
sg22
g23
sg33
g34
sS'Name'
p70
g20
sS'Address'
p71
S'W-97, GK-2'
p72
ssS'Product Code'
p73
(lp74
S'1'
p75
asS'Price'
p76
(lp77
I50000
asS'Salesperson id'
p78
I1
sS'Total amount of sales'
p79
I500000
sS'Product Name'
p80
(lp81
S'Macbook Air'
p82
asS'Date'
p83
S'01/09/2016'
p84
sS'Description'
p85
(lp86
S'13.3"'
p87
asS'Quantity'
p88
(lp89
I10
asss.