(dp0
I1
ccopy_reg
_reconstructor
p1
(c__main__
employee
p2
c__builtin__
object
p3
Ntp4
Rp5
(dp6
S'_employee__dobyear'
p7
I1999
sS'_employee__surname'
p8
S'Vachher'
p9
sS'_employee__address'
p10
S'B17'
p11
sS'_employee__final1'
p12
S''
p13
sS'_employee__bonus'
p14
F32000.0
sS'_employee__dobday'
p15
I28
sS'_employee__dojmonth'
p16
I6
sS'_employee__final2'
p17
g13
sS'_employee__dojdate'
p18
g13
sS'_employee__dojday'
p19
I30
sS'_employee__dobmonth'
p20
I4
sS'_employee__targets'
p21
I5
sS'_employee__product_division'
p22
S'sales'
p23
sS'_employee__first_name'
p24
S'Prateek'
p25
sS'_employee__city'
p26
S'Delhi'
p27
sS'_employee__dojyear'
p28
I2016
sS'_employee__salary'
p29
I60000
sbsI2
g1
(g2
g3
Ntp30
Rp31
(dp32
S'_employee__dobyear'
p33
I3
sS'_employee__surname'
p34
S'def'
p35
sS'_employee__address'
p36
S'gh'
p37
sS'_employee__final1'
p38
g13
sS'_employee__bonus'
p39
I0
sS'_employee__dobday'
p40
I1
sS'_employee__dojmonth'
p41
I5
sS'_employee__final2'
p42
g13
sS'_employee__dojdate'
p43
g13
sS'_employee__dojday'
p44
I4
sS'_employee__dobmonth'
p45
I2
sS'_employee__targets'
p46
I0
sS'_employee__product_division'
p47
S'a'
p48
sS'_employee__first_name'
p49
S'abc'
p50
sS'_employee__city'
p51
S'i'
p52
sS'_employee__dojyear'
p53
I6
sS'_employee__salary'
p54
I60000
sbs.