(dp0
I0
ccopy_reg
_reconstructor
p1
(c__main__
employee
p2
c__builtin__
object
p3
Ntp4
Rp5
(dp6
S'_employee__dobyear'
p7
I1998
sS'_employee__surname'
p8
S'Jaipuria'
p9
sS'_employee__address'
p10
S'W-97'
p11
sS'_employee__dojday'
p12
I1
sS'_employee__final1'
p13
S''
p14
sS'_employee__bonus'
p15
I0
sS'_employee__dobday'
p16
I30
sS'_employee__first_name'
p17
S'Vishrut'
p18
sS'_employee__dojmonth'
p19
I9
sS'_employee__final2'
p20
g14
sS'_employee__dojdate'
p21
g14
sS'_employee__city'
p22
S'New Delhi'
p23
sS'_employee__dojyear'
p24
I2016
sS'_employee__targets'
p25
I0
sS'_employee__dobmonth'
p26
I11
sS'id'
p27
I0
sS'_employee__salary'
p28
I60000
sS'_employee__product_division'
p29
S'Programming'
p30
sbsI1
g1
(g2
g3
Ntp31
Rp32
(dp33
g7
I5678
sg8
S'Vachher'
p34
sg10
S'B'
p35
sg12
I12
sg13
g14
sg15
I0
sg16
I12
sg17
S'Prateek'
p36
sg19
I23
sg20
g14
sg21
g14
sg22
S'New Delhi'
p37
sg24
I3445
sg25
I0
sg26
I34
sg27
I0
sg28
I60000
sg29
S'Research and Development'
p38
sbs.