(dp0
S'Macbook Air'
p1
(dp2
S'Code'
p3
S'1'
p4
sS'Description'
p5
S'13.3"'
p6
sS'Company'
p7
S'Apple'
p8
sS'SP'
p9
I50000
sS'VAT'
p10
I5
sS'Quantity'
p11
I99958
ssS'iPhone 7'
p12
(dp13
S'Code'
p14
S'123'
p15
sS'Description'
p16
S'32GB'
p17
sS'Company'
p18
S'Apple'
p19
sS'SP'
p20
I45000
sS'VAT'
p21
I3
sS'Quantity'
p22
I0
ssS'Earphones'
p23
(dp24
S'Code'
p25
S'2'
p26
sS'Description'
p27
S'Long, black earphones with mic great sound, bass, tangle free with extra silicon covers, 3.5mm headphone jack, and case'
p28
sS'Company'
p29
S'JBL'
p30
sS'SP'
p31
I3000
sS'VAT'
p32
I5
sS'Quantity'
p33
I878
ss.