(dp0
S'Nexus 5X'
p1
(dp2
S'Code'
p3
S'2'
p4
sS'Description'
p5
S'Nexus 5X'
p6
sS'Company'
p7
S'Google'
p8
sS'SP'
p9
I1231242
sS'VAT'
p10
I5
sS'Quantity'
p11
I9999875
ssS'Macbook Air'
p12
(dp13
g3
S'1'
p14
sg5
S"Macbook Air 13' with retina display"
p15
sg7
S'Apple'
p16
sg9
I100989
sg10
I5
sg11
I9999802
ssS'CK Spectacles'
p17
(dp18
S'Code'
p19
S'5'
p20
sS'Description'
p21
S'Black specs full plastic big size lightweight cheap with box and lens cleaner cloth and solution'
p22
sS'Company'
p23
S'CK'
p24
sS'SP'
p25
I10000
sS'VAT'
p26
I5
sS'Quantity'
p27
L9999999967L
ssS'Headphones'
p28
(dp29
S'Code'
p30
S'4'
p31
sS'Description'
p32
S'Headphone bose noise cancelling on the ear oe1000000000 with wire and case and manual and etc.......................'
p33
sS'Company'
p34
S'Bose'
p35
sS'SP'
p36
I1000
sS'VAT'
p37
I5
sS'Quantity'
p38
I999999691
ssS'TV'
p39
(dp40
S'Code'
p41
S'3'
p42
sS'Description'
p43
S"10000' LED TV"
p44
sS'Company'
p45
S'Sony'
p46
sS'SP'
p47
I2324309
sS'VAT'
p48
I5
sS'Quantity'
p49
I9999907
ss.